(dp1
S'files'
p2
(dp3
S'janitoo_runner'
p4
(dp5
S'index'
p6
(dp7
S'html_filename'
p8
S'janitoo_runner.html'
p9
sS'name'
p10
S'janitoo.runner'
p11
sS'nums'
p12
ccopy_reg
_reconstructor
p13
(ccoverage.results
Numbers
p14
c__builtin__
object
p15
NtRp16
(dp17
S'n_files'
p18
I1
sS'n_branches'
p19
I0
sS'n_statements'
p20
I221
sS'n_excluded'
p21
I0
sS'n_partial_branches'
p22
I0
sS'n_missing'
p23
I140
sS'n_missing_branches'
p24
I0
sbssS'hash'
p25
S'm\xbek\xc18\rI"v\xec \xf6\x98\x82\x90\xf7'
p26
ssS'janitoo_server'
p27
(dp28
g6
(dp29
g8
S'janitoo_server.html'
p30
sg10
S'janitoo.server'
p31
sg12
g13
(g14
g15
NtRp32
(dp33
g18
I1
sg19
I0
sg20
I314
sg21
I0
sg22
I0
sg23
I182
sg24
I0
sbssg25
S'\x06\xf9aEr\xd3\xde\x16\xe3`\x1b\xb3Z\x99\xa3\xe9'
p34
ssS'janitoo_factory_threads_scenes'
p35
(dp36
g6
(dp37
g8
S'janitoo_factory_threads_scenes.html'
p38
sg10
S'janitoo_factory.threads.scenes'
p39
sg12
g13
(g14
g15
NtRp40
(dp41
g18
I1
sg19
I0
sg20
I100
sg21
I7
sg22
I0
sg23
I51
sg24
I0
sbssg25
S'i\x17XQ\xcf\x80S\xe3B\xba>,y\xf5\x04y'
p42
ssS'janitoo_hostsensor_psutil'
p43
(dp44
g6
(dp45
g8
S'janitoo_hostsensor_psutil.html'
p46
sg10
g43
sg12
g13
(g14
g15
NtRp47
(dp48
g18
I1
sg19
I0
sg20
I4
sg21
I5
sg22
I0
sg23
I0
sg24
I0
sbssg25
S'\xb7\xeb\xa7\x9c>\xb6$\xa8"\x12\xe3\xefN\xc1\xe9\xcd'
p49
ssS'janitoo_dhcp'
p50
(dp51
S'index'
p52
(dp53
S'html_filename'
p54
S'janitoo_dhcp.html'
p55
sS'name'
p56
S'janitoo.dhcp'
p57
sS'nums'
p58
g13
(g14
g15
NtRp59
(dp60
g18
I1
sg19
I0
sg20
I1442
sg21
I0
sg22
I0
sg23
I1205
sg24
I0
sbssS'hash'
p61
S'\x02\x96\xe9,\xefg\t\xb8\xdeo\xb1c\x91\xd5\x8d$'
p62
ssS'janitoo_factory_values_config'
p63
(dp64
g6
(dp65
g8
S'janitoo_factory_values_config.html'
p66
sg10
S'janitoo_factory.values.config'
p67
sg12
g13
(g14
g15
NtRp68
(dp69
g18
I1
sg19
I0
sg20
I174
sg21
I0
sg22
I0
sg23
I122
sg24
I0
sbssg25
S'\xd9\xfd\xe9\xdf\xf5\x95(\x9c\x0c\x80\x7f\xa6\x03\xe5\xf5\x02'
p70
ssS'janitoo_mqtt'
p71
(dp72
g52
(dp73
g54
S'janitoo_mqtt.html'
p74
sg56
S'janitoo.mqtt'
p75
sg58
g13
(g14
g15
NtRp76
(dp77
g18
I1
sg19
I0
sg20
I134
sg21
I0
sg22
I0
sg23
I31
sg24
I0
sbssg61
S'\xd1\x91\x1d2\x96\xfc\xe6_\xda\xc2H\x016X\xdb\x90'
p78
ssS'janitoo_bus'
p79
(dp80
g6
(dp81
g8
S'janitoo_bus.html'
p82
sg10
S'janitoo.bus'
p83
sg12
g13
(g14
g15
NtRp84
(dp85
g18
I1
sg19
I0
sg20
I137
sg21
I0
sg22
I0
sg23
I45
sg24
I0
sbssg25
S'\xfc\xd8\xc7|\x00\xdc\xdelW\xb1\x97\xcc\xc2`D\xff'
p86
ssS'janitoo_component'
p87
(dp88
g6
(dp89
g8
S'janitoo_component.html'
p90
sg10
S'janitoo.component'
p91
sg12
g13
(g14
g15
NtRp92
(dp93
g18
I1
sg19
I0
sg20
I61
sg21
I0
sg22
I0
sg23
I7
sg24
I0
sbssg25
S'*KsGBgM.\xec\x03p\xf4\x90\x92\x8f\x08'
p94
ssS'janitoo_factory_values'
p95
(dp96
g6
(dp97
g8
S'janitoo_factory_values.html'
p98
sg10
S'janitoo_factory.values'
p99
sg12
g13
(g14
g15
NtRp100
(dp101
g18
I1
sg19
I0
sg20
I4
sg21
I5
sg22
I0
sg23
I0
sg24
I0
sbssg25
S'\xbet\xf8\x99\xbe\xda\x9e\xc9&\xaa\xae\xff\x03\xea\xdc.'
p102
ssS'janitoo_value'
p103
(dp104
g52
(dp105
g54
S'janitoo_value.html'
p106
sg56
S'janitoo.value'
p107
sg58
g13
(g14
g15
NtRp108
(dp109
g18
I1
sg19
I0
sg20
I82
sg21
I7
sg22
I0
sg23
I11
sg24
I0
sbssg61
S'\x81\xa8\xa0o\xd0\xb9\xf5\xc1\rkR\x13\x8b\xc4m\xb7'
p110
ssS'janitoo_utils'
p111
(dp112
g52
(dp113
g54
S'janitoo_utils.html'
p114
sg56
S'janitoo.utils'
p115
sg58
g13
(g14
g15
NtRp116
(dp117
g18
I1
sg19
I0
sg20
I70
sg21
I0
sg22
I0
sg23
I20
sg24
I0
sbssg61
S'\x91\xc6>\x11\x86\xbaQ\xdc\x04\xdc\x08tydu\x0b'
p118
ssS'janitoo_factory_threads_remote'
p119
(dp120
g6
(dp121
g8
S'janitoo_factory_threads_remote.html'
p122
sg10
S'janitoo_factory.threads.remote'
p123
sg12
g13
(g14
g15
NtRp124
(dp125
g18
I1
sg19
I0
sg20
I170
sg21
I0
sg22
I0
sg23
I121
sg24
I0
sbssg25
S'\x9b\x00\xa4\xe3g\x05\xf8\xb8-/.^x\xa7\x15Z'
p126
ssS'janitoo_factory_threads_http'
p127
(dp128
g6
(dp129
g8
S'janitoo_factory_threads_http.html'
p130
sg10
S'janitoo_factory.threads.http'
p131
sg12
g13
(g14
g15
NtRp132
(dp133
g18
I1
sg19
I0
sg20
I250
sg21
I0
sg22
I0
sg23
I178
sg24
I0
sbssg25
S'\xe1\xd5\xf3}\xc3)G:m\xa2\xc1\xe8\x0b\x06\xd5K'
p134
ssS'janitoo'
p135
(dp136
g52
(dp137
g54
S'janitoo.html'
p138
sg56
g135
sg58
g13
(g14
g15
NtRp139
(dp140
g18
I1
sg19
I0
sg20
I4
sg21
I5
sg22
I0
sg23
I0
sg24
I0
sbssg61
S'\xbet\xf8\x99\xbe\xda\x9e\xc9&\xaa\xae\xff\x03\xea\xdc.'
p141
ssS'janitoo_value_factory'
p142
(dp143
g52
(dp144
g54
S'janitoo_value_factory.html'
p145
sg56
S'janitoo.value_factory'
p146
sg58
g13
(g14
g15
NtRp147
(dp148
g18
I1
sg19
I0
sg20
I240
sg21
I0
sg22
I0
sg23
I68
sg24
I0
sbssg61
S'\x80\xba\xd4\x08b\xd9\x8eH\x98T\xf5-0\xa1t\x0f'
p149
ssS'janitoo_factory_threads'
p150
(dp151
g6
(dp152
g8
S'janitoo_factory_threads.html'
p153
sg10
S'janitoo_factory.threads'
p154
sg12
g13
(g14
g15
NtRp155
(dp156
g18
I1
sg19
I0
sg20
I4
sg21
I5
sg22
I0
sg23
I0
sg24
I0
sbssg25
S'\xbet\xf8\x99\xbe\xda\x9e\xc9&\xaa\xae\xff\x03\xea\xdc.'
p157
ssS'janitoo_node'
p158
(dp159
g52
(dp160
g8
S'janitoo_node.html'
p161
sg10
S'janitoo.node'
p162
sg12
g13
(g14
g15
NtRp163
(dp164
g18
I1
sg19
I0
sg20
I1120
sg21
I0
sg22
I0
sg23
I263
sg24
I0
sbssg61
S'F7\x00\x12\x0cb\xcb\xbf\xfb\xeb\xce\x92N\xc6\xf19'
p165
ssS'janitoo_factory_values_action'
p166
(dp167
g6
(dp168
g8
S'janitoo_factory_values_action.html'
p169
sg10
S'janitoo_factory.values.action'
p170
sg12
g13
(g14
g15
NtRp171
(dp172
g18
I1
sg19
I0
sg20
I99
sg21
I0
sg22
I0
sg23
I45
sg24
I0
sbssg25
S'\xb0\xb0>\xc6\x08\x850/f\x7f_\xaaa\x0e? '
p173
ssS'janitoo_factory_threads_email'
p174
(dp175
g6
(dp176
g8
S'janitoo_factory_threads_email.html'
p177
sg10
S'janitoo_factory.threads.email'
p178
sg12
g13
(g14
g15
NtRp179
(dp180
g18
I1
sg19
I0
sg20
I26
sg21
I7
sg22
I0
sg23
I3
sg24
I0
sbssg25
S'\xdf\x8fs\xa3\xd0\x9d\x9ee\xf8|\xa2\r\x89\x8c\xe5\xc7'
p181
ssS'janitoo_factory'
p182
(dp183
g6
(dp184
g8
S'janitoo_factory.html'
p185
sg10
g182
sg12
g13
(g14
g15
NtRp186
(dp187
g18
I1
sg19
I0
sg20
I4
sg21
I5
sg22
I0
sg23
I0
sg24
I0
sbssg25
S'\xbet\xf8\x99\xbe\xda\x9e\xc9&\xaa\xae\xff\x03\xea\xdc.'
p188
ssS'janitoo_factory_values_basic'
p189
(dp190
g6
(dp191
g8
S'janitoo_factory_values_basic.html'
p192
sg10
S'janitoo_factory.values.basic'
p193
sg12
g13
(g14
g15
NtRp194
(dp195
g18
I1
sg19
I0
sg20
I53
sg21
I0
sg22
I0
sg23
I22
sg24
I0
sbssg25
S'\xc7\x1b\x84V\xdf>\xf8\x8dX"\xb4\xe1\xbbA+\xe5'
p196
ssS'janitoo_thread'
p197
(dp198
g6
(dp199
g8
S'janitoo_thread.html'
p200
sg10
S'janitoo.thread'
p201
sg12
g13
(g14
g15
NtRp202
(dp203
g18
I1
sg19
I0
sg20
I145
sg21
I0
sg22
I0
sg23
I34
sg24
I0
sbssg25
S'\xf3\xef\xec\xde\xeeu\x9a\x83<O\xaf\xf9\xbb\xef\x84\xbe'
p204
ssS'janitoo_factory_values_other'
p205
(dp206
g6
(dp207
g8
S'janitoo_factory_values_other.html'
p208
sg10
S'janitoo_factory.values.other'
p209
sg12
g13
(g14
g15
NtRp210
(dp211
g18
I1
sg19
I0
sg20
I125
sg21
I0
sg22
I0
sg23
I85
sg24
I0
sbssg25
S'\xc2Kl\xa0\x8aG\x7f\xa1A\xef<\xbc\xc3\x10K\xec'
p212
ssS'janitoo_factory_values_sensor'
p213
(dp214
g6
(dp215
g8
S'janitoo_factory_values_sensor.html'
p216
sg10
S'janitoo_factory.values.sensor'
p217
sg12
g13
(g14
g15
NtRp218
(dp219
g18
I1
sg19
I0
sg20
I185
sg21
I0
sg22
I0
sg23
I80
sg24
I0
sbssg25
S'\xf0\x89M\xe1\x0f\x05\xcf\xac\xab\xfb2\x9e\x88\x07w\xa0'
p220
ssS'janitoo_classes'
p221
(dp222
g52
(dp223
g54
S'janitoo_classes.html'
p224
sg56
S'janitoo.classes'
p225
sg58
g13
(g14
g15
NtRp226
(dp227
g18
I1
sg19
I0
sg20
I9
sg21
I0
sg22
I0
sg23
I0
sg24
I0
sbssg61
S'\xcf\x0f\x1b@V\xc3\xad\x86Ni\xa0R\xf5\t;k'
p228
ssS'janitoo_hostsensor_psutil_component'
p229
(dp230
g6
(dp231
g8
S'janitoo_hostsensor_psutil_component.html'
p232
sg10
S'janitoo_hostsensor_psutil.component'
p233
sg12
g13
(g14
g15
NtRp234
(dp235
g18
I1
sg19
I0
sg20
I403
sg21
I0
sg22
I0
sg23
I73
sg24
I0
sbssg25
S'\x18+\x9d&\xd9T9\xce\xff\xbb \xc71\xea\xf6\xef'
p236
ssS'janitoo_options'
p237
(dp238
g52
(dp239
g54
S'janitoo_options.html'
p240
sg56
S'janitoo.options'
p241
sg58
g13
(g14
g15
NtRp242
(dp243
g18
I1
sg19
I0
sg20
I154
sg21
I0
sg22
I0
sg23
I83
sg24
I0
sbssg61
S'\xe3\x02\x93\x0f\xf89,\xd0k<\xda{Q\xc30\xff'
p244
sssS'version'
p245
S'3.7.1'
p246
sS'settings'
p247
S'.\xceN+\x8f\x8c;\x01\x81\x9a\x86\xd5h\x80\xcb\x9f'
p248
sS'format'
p249
I1
s.